target datalayout = "e-m:e-p270:32:32-p271:32:32-p272:64:64-i64:64-i128:128-f80:128-n8:16:32:64-S128"
target triple = "x86_64-pc-linux-gnu"

%struct.If_DsdMan_t_ = type { ptr, i32, i32, i32, i32, ptr, ptr, %struct.Vec_Ptr_t_, %struct.Vec_Int_t_, %struct.Vec_Int_t_, ptr, ptr, ptr, [16 x ptr], [16 x ptr], [16 x ptr], [16 x ptr], i32, i32, ptr, ptr, ptr, ptr, ptr, i32, i32, i32, i32, i64, i64, i64, i64, i64 }
%struct.Vec_Ptr_t_ = type { i32, i32, ptr }
%struct.Vec_Int_t_ = type { i32, i32, ptr }
%struct.If_DsdObj_t_ = type { i32, i32, [0 x i32] }

; Function Attrs: inlinehint nounwind uwtable
define internal ptr @Vec_PtrEntry(ptr noundef %0, i32 noundef %1) #1 {
  %3 = alloca ptr, align 8
  %4 = alloca i32, align 4
  store ptr %0, ptr %3, align 8, !tbaa !22
  store i32 %1, ptr %4, align 4, !tbaa !27
  %5 = load ptr, ptr %3, align 8, !tbaa !22
  %6 = getelementptr inbounds nuw %struct.Vec_Ptr_t_, ptr %5, i32 0, i32 2
  %7 = load ptr, ptr %6, align 8, !tbaa !46
  %8 = load i32, ptr %4, align 4, !tbaa !27
  %9 = sext i32 %8 to i64
  %10 = getelementptr inbounds ptr, ptr %7, i64 %9
  %11 = load ptr, ptr %10, align 8, !tbaa !44
  ret ptr %11
}

; Function Attrs: inlinehint nounwind uwtable
define internal ptr @If_DsdVecObj(ptr noundef %0, i32 noundef %1) #1 {
  %3 = alloca ptr, align 8
  %4 = alloca i32, align 4
  store ptr %0, ptr %3, align 8, !tbaa !22
  store i32 %1, ptr %4, align 4, !tbaa !27
  %5 = load ptr, ptr %3, align 8, !tbaa !22
  %6 = load i32, ptr %4, align 4, !tbaa !27
  %7 = call ptr @Vec_PtrEntry(ptr noundef %5, i32 noundef %6)
  ret ptr %7
}

; Function Attrs: inlinehint nounwind uwtable
define internal i32 @Abc_Lit2Var(i32 noundef %0) #1 {
  %2 = alloca i32, align 4
  store i32 %0, ptr %2, align 4, !tbaa !27
  %3 = load i32, ptr %2, align 4, !tbaa !27
  %4 = ashr i32 %3, 1
  ret i32 %4
}

; Function Attrs: inlinehint nounwind uwtable
define internal ptr @If_DsdObjFanin(ptr noundef %0, ptr noundef %1, i32 noundef %2) #1 {
  %4 = alloca ptr, align 8
  %5 = alloca ptr, align 8
  %6 = alloca i32, align 4
  store ptr %0, ptr %4, align 8, !tbaa !22
  store ptr %1, ptr %5, align 8, !tbaa !40
  store i32 %2, ptr %6, align 4, !tbaa !27
  %7 = load ptr, ptr %4, align 8, !tbaa !22
  %8 = load ptr, ptr %5, align 8, !tbaa !40
  %9 = getelementptr inbounds nuw %struct.If_DsdObj_t_, ptr %8, i32 0, i32 2
  %10 = load i32, ptr %6, align 4, !tbaa !27
  %11 = sext i32 %10 to i64
  %12 = getelementptr inbounds [0 x i32], ptr %9, i64 0, i64 %11
  %13 = load i32, ptr %12, align 4, !tbaa !27
  %14 = call i32 @Abc_Lit2Var(i32 noundef %13)
  %15 = call ptr @If_DsdVecObj(ptr noundef %7, i32 noundef %14)
  ret ptr %15
}

; Function Attrs: inlinehint nounwind uwtable
define internal i32 @If_DsdObjFaninNum(ptr noundef %0) #1 {
  %2 = alloca ptr, align 8
  store ptr %0, ptr %2, align 8, !tbaa !40
  %3 = load ptr, ptr %2, align 8, !tbaa !40
  %4 = getelementptr inbounds nuw %struct.If_DsdObj_t_, ptr %3, i32 0, i32 1
  %5 = load i32, ptr %4, align 4
  %6 = lshr i32 %5, 27
  ret i32 %6
}

; Function Attrs: inlinehint nounwind uwtable
define internal i32 @If_DsdObjType(ptr noundef %0) #1 {
  %2 = alloca ptr, align 8
  store ptr %0, ptr %2, align 8, !tbaa !40
  %3 = load ptr, ptr %2, align 8, !tbaa !40
  %4 = getelementptr inbounds nuw %struct.If_DsdObj_t_, ptr %3, i32 0, i32 1
  %5 = load i32, ptr %4, align 4
  %6 = and i32 %5, 7
  ret i32 %6
}

; Function Attrs: nounwind uwtable
define i32 @If_DsdSign_rec(ptr noundef %0, ptr noundef %1, ptr noundef %2) #0 {
  %4 = alloca i32, align 4
  %5 = alloca ptr, align 8
  %6 = alloca ptr, align 8
  %7 = alloca ptr, align 8
  %8 = alloca i32, align 4
  %9 = alloca i32, align 4
  %10 = alloca ptr, align 8
  %11 = alloca i32, align 4
  store ptr %0, ptr %5, align 8, !tbaa !3
  store ptr %1, ptr %6, align 8, !tbaa !40
  store ptr %2, ptr %7, align 8, !tbaa !60
  call void @llvm.lifetime.start.p0(i64 4, ptr %8) #15
  store i32 0, ptr %8, align 4, !tbaa !27
  call void @llvm.lifetime.start.p0(i64 4, ptr %9) #15
  call void @llvm.lifetime.start.p0(i64 8, ptr %10) #15
  %12 = load ptr, ptr %6, align 8, !tbaa !40
  %13 = call i32 @If_DsdObjType(ptr noundef %12)
  %14 = icmp eq i32 %13, 2
  br i1 %14, label %15, label %21

15:                                               ; preds = %3
  %16 = load ptr, ptr %7, align 8, !tbaa !60
  %17 = load i32, ptr %16, align 4, !tbaa !27
  %18 = add nsw i32 %17, 1
  store i32 %18, ptr %16, align 4, !tbaa !27
  %19 = mul nsw i32 2, %17
  %20 = shl i32 1, %19
  store i32 %20, ptr %4, align 4
  store i32 1, ptr %11, align 4
  br label %48

21:                                               ; preds = %3
  store i32 0, ptr %9, align 4, !tbaa !27
  br label %22

22:                                               ; preds = %43, %21
  %23 = load i32, ptr %9, align 4, !tbaa !27
  %24 = load ptr, ptr %6, align 8, !tbaa !40
  %25 = call i32 @If_DsdObjFaninNum(ptr noundef %24)
  %26 = icmp slt i32 %23, %25
  br i1 %26, label %27, label %34

27:                                               ; preds = %22
  %28 = load ptr, ptr %5, align 8, !tbaa !3
  %29 = getelementptr inbounds nuw %struct.If_DsdMan_t_, ptr %28, i32 0, i32 7
  %30 = load ptr, ptr %6, align 8, !tbaa !40
  %31 = load i32, ptr %9, align 4, !tbaa !27
  %32 = call ptr @If_DsdObjFanin(ptr noundef %29, ptr noundef %30, i32 noundef %31)
  store ptr %32, ptr %10, align 8, !tbaa !40
  %33 = icmp ne ptr %32, null
  br label %34

34:                                               ; preds = %27, %22
  %35 = phi i1 [ false, %22 ], [ %33, %27 ]
  br i1 %35, label %36, label %46

36:                                               ; preds = %34
  %37 = load ptr, ptr %5, align 8, !tbaa !3
  %38 = load ptr, ptr %10, align 8, !tbaa !40
  %39 = load ptr, ptr %7, align 8, !tbaa !60
  %40 = call i32 @If_DsdSign_rec(ptr noundef %37, ptr noundef %38, ptr noundef %39)
  %41 = load i32, ptr %8, align 4, !tbaa !27
  %42 = or i32 %41, %40
  store i32 %42, ptr %8, align 4, !tbaa !27
  br label %43

43:                                               ; preds = %36
  %44 = load i32, ptr %9, align 4, !tbaa !27
  %45 = add nsw i32 %44, 1
  store i32 %45, ptr %9, align 4, !tbaa !27
  br label %22, !llvm.loop !232

46:                                               ; preds = %34
  %47 = load i32, ptr %8, align 4, !tbaa !27
  store i32 %47, ptr %4, align 4
  store i32 1, ptr %11, align 4
  br label %48

48:                                               ; preds = %46, %15
  call void @llvm.lifetime.end.p0(i64 8, ptr %10) #15
  call void @llvm.lifetime.end.p0(i64 4, ptr %9) #15
  call void @llvm.lifetime.end.p0(i64 4, ptr %8) #15
  %49 = load i32, ptr %4, align 4
  ret i32 %49
}