; Function Attrs: nofree nosync nounwind memory(readwrite, inaccessiblemem: none) uwtable
define i32 @If_DsdSign_rec(ptr noundef readonly captures(none) %0, ptr noundef readonly captures(none) %1, ptr noundef captures(none) %2) local_unnamed_addr #24 {
  %4 = getelementptr i8, ptr %1, i64 4
  %.val = load i32, ptr %4, align 4
  %5 = and i32 %.val, 7
  %6 = icmp eq i32 %5, 2
  br i1 %6, label %9, label %.preheader

.preheader:                                       ; preds = %3
  %7 = getelementptr i8, ptr %0, i64 48
  %.not23 = icmp ult i32 %.val, 134217728
  br i1 %.not23, label %.critedge, label %.lr.ph

.lr.ph:                                           ; preds = %.preheader
  %8 = getelementptr inbounds nuw i8, ptr %1, i64 8
  br label %14

9:                                                ; preds = %3
  %10 = load i32, ptr %2, align 4, !tbaa !40
  %11 = add nsw i32 %10, 1
  store i32 %11, ptr %2, align 4, !tbaa !40
  %12 = shl nsw i32 %10, 1
  %13 = shl nuw i32 1, %12
  br label %.critedge

14:                                               ; preds = %.lr.ph, %21
  %indvars.iv = phi i64 [ 0, %.lr.ph ], [ %indvars.iv.next, %21 ]
  %.01419 = phi i32 [ 0, %.lr.ph ], [ %23, %21 ]
  %.val17 = load ptr, ptr %7, align 8, !tbaa !23
  %15 = getelementptr inbounds nuw [0 x i32], ptr %8, i64 0, i64 %indvars.iv
  %16 = load i32, ptr %15, align 4, !tbaa !40
  %17 = ashr i32 %16, 1
  %18 = sext i32 %17 to i64
  %19 = getelementptr inbounds ptr, ptr %.val17, i64 %18
  %20 = load ptr, ptr %19, align 8, !tbaa !24
  %.not = icmp eq ptr %20, null
  br i1 %.not, label %.critedge, label %21

21:                                               ; preds = %14
  %22 = tail call i32 @If_DsdSign_rec(ptr noundef nonnull %0, ptr noundef nonnull %20, ptr noundef %2)
  %23 = or i32 %22, %.01419
  %indvars.iv.next = add nuw nsw i64 %indvars.iv, 1
  %.val16 = load i32, ptr %4, align 4
  %24 = lshr i32 %.val16, 27
  %25 = zext nneg i32 %24 to i64
  %26 = icmp samesign ult i64 %indvars.iv.next, %25
  br i1 %26, label %14, label %.critedge, !llvm.loop !219

.critedge:                                        ; preds = %21, %14, %.preheader, %9
  %.0 = phi i32 [ %13, %9 ], [ 0, %.preheader ], [ %23, %21 ], [ %.01419, %14 ]
  ret i32 %.0
}